target datalayout = "e-m:e-p270:32:32-p271:32:32-p272:64:64-i64:64-i128:128-f80:128-n8:16:32:64-S128"
target triple = "x86_64-unknown-linux-gnu"

%"class.std::__cxx11::basic_string" = type { %"struct.std::__cxx11::basic_string<char>::_Alloc_hider", i64, %union.anon }
%"struct.std::__cxx11::basic_string<char>::_Alloc_hider" = type { ptr }
%union.anon = type { i64, [8 x i8] }
%"class.std::allocator" = type { i8 }
%"struct.proxygen::HTTPPriority" = type { ptr, i64 }

@.str = private unnamed_addr constant [3 x i8] c"u=\00", align 1
@.str.1 = private unnamed_addr constant [3 x i8] c",i\00", align 1
@.str.2 = private unnamed_addr constant [1 x i8] zeroinitializer, align 1
@.str.3 = private unnamed_addr constant [4 x i8] c",o=\00", align 1
@.str.96 = private unnamed_addr constant [50 x i8] c"basic_string: construction from null is not valid\00", align 1

; Function Attrs: mustprogress nounwind uwtable
define linkonce_odr noundef i64 @_ZNSt11char_traitsIcE6lengthEPKc(ptr noundef %__s) #4 comdat align 2 {
entry:
  %__s.addr = alloca ptr, align 8
  store ptr %__s, ptr %__s.addr, align 8
  %0 = load ptr, ptr %__s.addr, align 8
  %call = call i64 @strlen(ptr noundef %0) #2
  ret i64 %call
}

; Function Attrs: mustprogress nounwind uwtable
define linkonce_odr void @_ZNSt7__cxx1112basic_stringIcSt11char_traitsIcESaIcEE12_Alloc_hiderD2Ev(ptr noundef nonnull align 8 dereferenceable(8) %this) unnamed_addr #4 comdat align 2 {
entry:
  %this.addr = alloca ptr, align 8
  store ptr %this, ptr %this.addr, align 8
  %this1 = load ptr, ptr %this.addr, align 8
  call void @_ZNSaIcED2Ev(ptr noundef nonnull align 1 dereferenceable(1) %this1) #2
  ret void
}

; Function Attrs: mustprogress uwtable
define linkonce_odr void @_ZNSt7__cxx1112basic_stringIcSt11char_traitsIcESaIcEEC2IS3_EEPKcRKS3_(ptr noundef nonnull align 8 dereferenceable(32) %this, ptr noundef %__s, ptr noundef nonnull align 1 dereferenceable(1) %__a) unnamed_addr #3 comdat align 2 personality ptr @__gxx_personality_v0 {
entry:
  %this.addr = alloca ptr, align 8
  %__s.addr = alloca ptr, align 8
  %__a.addr = alloca ptr, align 8
  %exn.slot = alloca ptr, align 8
  %ehselector.slot = alloca i32, align 4
  %__end = alloca ptr, align 8
  store ptr %this, ptr %this.addr, align 8
  store ptr %__s, ptr %__s.addr, align 8
  store ptr %__a, ptr %__a.addr, align 8
  %this1 = load ptr, ptr %this.addr, align 8
  %_M_dataplus = getelementptr inbounds %"class.std::__cxx11::basic_string", ptr %this1, i32 0, i32 0
  %call = call noundef ptr @_ZNSt7__cxx1112basic_stringIcSt11char_traitsIcESaIcEE13_M_local_dataEv(ptr noundef nonnull align 8 dereferenceable(32) %this1)
  %0 = load ptr, ptr %__a.addr, align 8
  call void @_ZNSt7__cxx1112basic_stringIcSt11char_traitsIcESaIcEE12_Alloc_hiderC1EPcRKS3_(ptr noundef nonnull align 8 dereferenceable(8) %_M_dataplus, ptr noundef %call, ptr noundef nonnull align 1 dereferenceable(1) %0)
  %1 = load ptr, ptr %__s.addr, align 8
  %cmp = icmp eq ptr %1, null
  br i1 %cmp, label %if.then, label %if.end

if.then:                                          ; preds = %entry
  invoke void @_ZSt19__throw_logic_errorPKc(ptr noundef @.str.96) #24
          to label %invoke.cont unwind label %lpad

invoke.cont:                                      ; preds = %if.then
  unreachable

lpad:                                             ; preds = %invoke.cont2, %if.end, %if.then
  %2 = landingpad { ptr, i32 }
          cleanup
  %3 = extractvalue { ptr, i32 } %2, 0
  store ptr %3, ptr %exn.slot, align 8
  %4 = extractvalue { ptr, i32 } %2, 1
  store i32 %4, ptr %ehselector.slot, align 4
  call void @_ZNSt7__cxx1112basic_stringIcSt11char_traitsIcESaIcEE12_Alloc_hiderD2Ev(ptr noundef nonnull align 8 dereferenceable(8) %_M_dataplus) #2
  br label %eh.resume

if.end:                                           ; preds = %entry
  %5 = load ptr, ptr %__s.addr, align 8
  %6 = load ptr, ptr %__s.addr, align 8
  %call3 = invoke noundef i64 @_ZNSt11char_traitsIcE6lengthEPKc(ptr noundef %6)
          to label %invoke.cont2 unwind label %lpad

invoke.cont2:                                     ; preds = %if.end
  %add.ptr = getelementptr inbounds i8, ptr %5, i64 %call3
  store ptr %add.ptr, ptr %__end, align 8
  %7 = load ptr, ptr %__s.addr, align 8
  %8 = load ptr, ptr %__end, align 8
  invoke void @_ZNSt7__cxx1112basic_stringIcSt11char_traitsIcESaIcEE12_M_constructIPKcEEvT_S8_St20forward_iterator_tag(ptr noundef nonnull align 8 dereferenceable(32) %this1, ptr noundef %7, ptr noundef %8)
          to label %invoke.cont4 unwind label %lpad

invoke.cont4:                                     ; preds = %invoke.cont2
  ret void

eh.resume:                                        ; preds = %lpad
  %exn = load ptr, ptr %exn.slot, align 8
  %sel = load i32, ptr %ehselector.slot, align 4
  %lpad.val = insertvalue { ptr, i32 } poison, ptr %exn, 0
  %lpad.val5 = insertvalue { ptr, i32 } %lpad.val, i32 %sel, 1
  resume { ptr, i32 } %lpad.val5
}

; Function Attrs: mustprogress uwtable
define linkonce_odr void @_ZN5folly2toINSt7__cxx1112basic_stringIcSt11char_traitsIcESaIcEEEJA4_cmEEENSt9enable_ifIXaasr12IsSomeStringIT_EE5valueoonesZT0_Li1Entsr3std7is_sameIS9_19__type_pack_elementIXmisPvDpT0_ELi1EEJvSC_EEEE5valueES9_E4typeEDpRKSB_(ptr noalias sret(%"class.std::__cxx11::basic_string") align 8 %agg.result, ptr noundef nonnull align 1 dereferenceable(4) %vs, ptr noundef nonnull align 8 dereferenceable(8) %vs1) #3 comdat personality ptr @__gxx_personality_v0 {
entry:
  %result.ptr = alloca ptr, align 8
  %vs.addr = alloca ptr, align 8
  %vs.addr2 = alloca ptr, align 8
  %nrvo = alloca i1, align 1
  %ref.tmp = alloca ptr, align 8
  %exn.slot = alloca ptr, align 8
  %ehselector.slot = alloca i32, align 4
  store ptr %agg.result, ptr %result.ptr, align 8
  store ptr %vs, ptr %vs.addr, align 8
  store ptr %vs1, ptr %vs.addr2, align 8
  store i1 false, ptr %nrvo, align 1
  call void @_ZNSt7__cxx1112basic_stringIcSt11char_traitsIcESaIcEEC1Ev(ptr noundef nonnull align 8 dereferenceable(32) %agg.result) #2
  %0 = load ptr, ptr %vs.addr, align 8
  %1 = load ptr, ptr %vs.addr2, align 8
  store ptr %agg.result, ptr %ref.tmp, align 8
  invoke void @_ZN5folly11toAppendFitIJA4_cmPNSt7__cxx1112basic_stringIcSt11char_traitsIcESaIcEEEEEENSt9enable_ifIXsr12IsSomeStringINSt14remove_pointerI19__type_pack_elementIXmisPDpT_ELi1EEJSD_EEE4typeEEE5valueEvE4typeEDpRKSC_(ptr noundef nonnull align 1 dereferenceable(4) %0, ptr noundef nonnull align 8 dereferenceable(8) %1, ptr noundef nonnull align 8 dereferenceable(8) %ref.tmp)
          to label %invoke.cont unwind label %lpad

invoke.cont:                                      ; preds = %entry
  store i1 true, ptr %nrvo, align 1
  %nrvo.val = load i1, ptr %nrvo, align 1
  br i1 %nrvo.val, label %nrvo.skipdtor, label %nrvo.unused

lpad:                                             ; preds = %entry
  %2 = landingpad { ptr, i32 }
          cleanup
  %3 = extractvalue { ptr, i32 } %2, 0
  store ptr %3, ptr %exn.slot, align 8
  %4 = extractvalue { ptr, i32 } %2, 1
  store i32 %4, ptr %ehselector.slot, align 4
  call void @_ZNSt7__cxx1112basic_stringIcSt11char_traitsIcESaIcEED1Ev(ptr noundef nonnull align 8 dereferenceable(32) %agg.result) #2
  br label %eh.resume

nrvo.unused:                                      ; preds = %invoke.cont
  call void @_ZNSt7__cxx1112basic_stringIcSt11char_traitsIcESaIcEED1Ev(ptr noundef nonnull align 8 dereferenceable(32) %agg.result) #2
  br label %nrvo.skipdtor

nrvo.skipdtor:                                    ; preds = %nrvo.unused, %invoke.cont
  ret void

eh.resume:                                        ; preds = %lpad
  %exn = load ptr, ptr %exn.slot, align 8
  %sel = load i32, ptr %ehselector.slot, align 4
  %lpad.val = insertvalue { ptr, i32 } poison, ptr %exn, 0
  %lpad.val3 = insertvalue { ptr, i32 } %lpad.val, i32 %sel, 1
  resume { ptr, i32 } %lpad.val3
}

; Function Attrs: mustprogress nounwind uwtable
define linkonce_odr noundef nonnull align 1 dereferenceable(1) ptr @_ZSt3minIhERKT_S2_S2_(ptr noundef nonnull align 1 dereferenceable(1) %__a, ptr noundef nonnull align 1 dereferenceable(1) %__b) #4 comdat {
entry:
  %retval = alloca ptr, align 8
  %__a.addr = alloca ptr, align 8
  %__b.addr = alloca ptr, align 8
  store ptr %__a, ptr %__a.addr, align 8
  store ptr %__b, ptr %__b.addr, align 8
  %0 = load ptr, ptr %__b.addr, align 8
  %1 = load i8, ptr %0, align 1
  %conv = zext i8 %1 to i32
  %2 = load ptr, ptr %__a.addr, align 8
  %3 = load i8, ptr %2, align 1
  %conv1 = zext i8 %3 to i32
  %cmp = icmp slt i32 %conv, %conv1
  br i1 %cmp, label %if.then, label %if.end

if.then:                                          ; preds = %entry
  %4 = load ptr, ptr %__b.addr, align 8
  store ptr %4, ptr %retval, align 8
  br label %return

if.end:                                           ; preds = %entry
  %5 = load ptr, ptr %__a.addr, align 8
  store ptr %5, ptr %retval, align 8
  br label %return

return:                                           ; preds = %if.end, %if.then
  %6 = load ptr, ptr %retval, align 8
  ret ptr %6
}

; Function Attrs: mustprogress uwtable
define void @_ZN8proxygen20httpPriorityToStringB5cxx11ERKNS_12HTTPPriorityE(ptr noalias sret(%"class.std::__cxx11::basic_string") align 8 %agg.result, ptr noundef nonnull align 8 dereferenceable(16) %pri) #3 personality ptr @__gxx_personality_v0 {
entry:
  %result.ptr = alloca ptr, align 8
  %pri.addr = alloca ptr, align 8
  %ref.tmp = alloca i8, align 1
  %ref.tmp1 = alloca i8, align 1
  %ref.tmp2 = alloca ptr, align 8
  %ref.tmp6 = alloca %"class.std::__cxx11::basic_string", align 8
  %ref.tmp10 = alloca i64, align 8
  %ref.tmp15 = alloca %"class.std::allocator", align 1
  %cleanup.cond = alloca i1, align 1
  %exn.slot = alloca ptr, align 8
  %ehselector.slot = alloca i32, align 4
  store ptr %agg.result, ptr %result.ptr, align 8
  store ptr %pri, ptr %pri.addr, align 8
  store i8 7, ptr %ref.tmp, align 1
  %0 = load ptr, ptr %pri.addr, align 8
  %urgency = getelementptr inbounds %"struct.proxygen::HTTPPriority", ptr %0, i32 0, i32 1
  %bf.load = load i64, ptr %urgency, align 8
  %bf.clear = and i64 %bf.load, 7
  %bf.cast = trunc i64 %bf.clear to i8
  store i8 %bf.cast, ptr %ref.tmp1, align 1
  %call = call noundef nonnull align 1 dereferenceable(1) ptr @_ZSt3minIhERKT_S2_S2_(ptr noundef nonnull align 1 dereferenceable(1) %ref.tmp, ptr noundef nonnull align 1 dereferenceable(1) %ref.tmp1)
  %1 = load ptr, ptr %pri.addr, align 8
  %incremental = getelementptr inbounds %"struct.proxygen::HTTPPriority", ptr %1, i32 0, i32 1
  %bf.load3 = load i64, ptr %incremental, align 8
  %bf.lshr = lshr i64 %bf.load3, 3
  %bf.clear4 = and i64 %bf.lshr, 1
  %bf.cast5 = trunc i64 %bf.clear4 to i1
  %cond = select i1 %bf.cast5, ptr @.str.1, ptr @.str.2
  store ptr %cond, ptr %ref.tmp2, align 8
  %2 = load ptr, ptr %pri.addr, align 8
  %orderId = getelementptr inbounds %"struct.proxygen::HTTPPriority", ptr %2, i32 0, i32 1
  %bf.load7 = load i64, ptr %orderId, align 8
  %bf.lshr8 = lshr i64 %bf.load7, 4
  %bf.clear9 = and i64 %bf.lshr8, 288230376151711743
  %cmp = icmp ugt i64 %bf.clear9, 0
  store i1 false, ptr %cleanup.cond, align 1
  br i1 %cmp, label %cond.true, label %cond.false

cond.true:                                        ; preds = %entry
  %3 = load ptr, ptr %pri.addr, align 8
  %orderId11 = getelementptr inbounds %"struct.proxygen::HTTPPriority", ptr %3, i32 0, i32 1
  %bf.load12 = load i64, ptr %orderId11, align 8
  %bf.lshr13 = lshr i64 %bf.load12, 4
  %bf.clear14 = and i64 %bf.lshr13, 288230376151711743
  store i64 %bf.clear14, ptr %ref.tmp10, align 8
  call void @_ZN5folly2toINSt7__cxx1112basic_stringIcSt11char_traitsIcESaIcEEEJA4_cmEEENSt9enable_ifIXaasr12IsSomeStringIT_EE5valueoonesZT0_Li1Entsr3std7is_sameIS9_19__type_pack_elementIXmisPvDpT0_ELi1EEJvSC_EEEE5valueES9_E4typeEDpRKSB_(ptr sret(%"class.std::__cxx11::basic_string") align 8 %ref.tmp6, ptr noundef nonnull align 1 dereferenceable(4) @.str.3, ptr noundef nonnull align 8 dereferenceable(8) %ref.tmp10)
  br label %cond.end

cond.false:                                       ; preds = %entry
  call void @_ZNSaIcEC1Ev(ptr noundef nonnull align 1 dereferenceable(1) %ref.tmp15) #2
  store i1 true, ptr %cleanup.cond, align 1
  invoke void @_ZNSt7__cxx1112basic_stringIcSt11char_traitsIcESaIcEEC2IS3_EEPKcRKS3_(ptr noundef nonnull align 8 dereferenceable(32) %ref.tmp6, ptr noundef @.str.2, ptr noundef nonnull align 1 dereferenceable(1) %ref.tmp15)
          to label %invoke.cont unwind label %lpad

invoke.cont:                                      ; preds = %cond.false
  br label %cond.end

cond.end:                                         ; preds = %invoke.cont, %cond.true
  invoke void @_ZN5folly2toINSt7__cxx1112basic_stringIcSt11char_traitsIcESaIcEEEJA3_chPKcS6_EEENSt9enable_ifIXaasr12IsSomeStringIT_EE5valueoonesZT0_Li1Entsr3std7is_sameISB_19__type_pack_elementIXmisPvDpT0_ELi1EEJvSE_EEEE5valueESB_E4typeEDpRKSD_(ptr sret(%"class.std::__cxx11::basic_string") align 8 %agg.result, ptr noundef nonnull align 1 dereferenceable(3) @.str, ptr noundef nonnull align 1 dereferenceable(1) %call, ptr noundef nonnull align 8 dereferenceable(8) %ref.tmp2, ptr noundef nonnull align 8 dereferenceable(32) %ref.tmp6)
          to label %invoke.cont17 unwind label %lpad16

invoke.cont17:                                    ; preds = %cond.end
  call void @_ZNSt7__cxx1112basic_stringIcSt11char_traitsIcESaIcEED1Ev(ptr noundef nonnull align 8 dereferenceable(32) %ref.tmp6) #2
  %cleanup.is_active = load i1, ptr %cleanup.cond, align 1
  br i1 %cleanup.is_active, label %cleanup.action, label %cleanup.done

cleanup.action:                                   ; preds = %invoke.cont17
  call void @_ZNSaIcED1Ev(ptr noundef nonnull align 1 dereferenceable(1) %ref.tmp15) #2
  br label %cleanup.done

cleanup.done:                                     ; preds = %cleanup.action, %invoke.cont17
  ret void

lpad:                                             ; preds = %cond.false
  %4 = landingpad { ptr, i32 }
          cleanup
  %5 = extractvalue { ptr, i32 } %4, 0
  store ptr %5, ptr %exn.slot, align 8
  %6 = extractvalue { ptr, i32 } %4, 1
  store i32 %6, ptr %ehselector.slot, align 4
  br label %ehcleanup

lpad16:                                           ; preds = %cond.end
  %7 = landingpad { ptr, i32 }
          cleanup
  %8 = extractvalue { ptr, i32 } %7, 0
  store ptr %8, ptr %exn.slot, align 8
  %9 = extractvalue { ptr, i32 } %7, 1
  store i32 %9, ptr %ehselector.slot, align 4
  call void @_ZNSt7__cxx1112basic_stringIcSt11char_traitsIcESaIcEED1Ev(ptr noundef nonnull align 8 dereferenceable(32) %ref.tmp6) #2
  br label %ehcleanup

ehcleanup:                                        ; preds = %lpad16, %lpad
  %cleanup.is_active18 = load i1, ptr %cleanup.cond, align 1
  br i1 %cleanup.is_active18, label %cleanup.action19, label %cleanup.done20

cleanup.action19:                                 ; preds = %ehcleanup
  call void @_ZNSaIcED1Ev(ptr noundef nonnull align 1 dereferenceable(1) %ref.tmp15) #2
  br label %cleanup.done20

cleanup.done20:                                   ; preds = %cleanup.action19, %ehcleanup
  br label %eh.resume

eh.resume:                                        ; preds = %cleanup.done20
  %exn = load ptr, ptr %exn.slot, align 8
  %sel = load i32, ptr %ehselector.slot, align 4
  %lpad.val = insertvalue { ptr, i32 } poison, ptr %exn, 0
  %lpad.val21 = insertvalue { ptr, i32 } %lpad.val, i32 %sel, 1
  resume { ptr, i32 } %lpad.val21
}