; Function Attrs: mustprogress uwtable
define void @_ZN8proxygen20httpPriorityToStringB5cxx11ERKNS_12HTTPPriorityE(ptr noalias sret(%"class.std::__cxx11::basic_string") align 8 %agg.result, ptr nocapture noundef nonnull readonly align 8 dereferenceable(16) %pri) local_unnamed_addr #2 personality ptr @__gxx_personality_v0 {
entry:
  %ref.tmp.i = alloca ptr, align 8
  %ref.tmp = alloca i8, align 1
  %ref.tmp1 = alloca i8, align 1
  %ref.tmp2 = alloca ptr, align 8
  %ref.tmp6 = alloca %"class.std::__cxx11::basic_string", align 8
  %ref.tmp10 = alloca i64, align 8
  %ref.tmp15 = alloca %"class.std::allocator", align 1
  store i8 7, ptr %ref.tmp, align 1
  %urgency = getelementptr inbounds i8, ptr %pri, i64 8
  %bf.load = load i64, ptr %urgency, align 8
  %0 = trunc i64 %bf.load to i8
  %bf.cast = and i8 %0, 7
  store i8 %bf.cast, ptr %ref.tmp1, align 1
  %cmp.i.not = icmp eq i8 %bf.cast, 7
  %__b.__a.i = select i1 %cmp.i.not, ptr %ref.tmp, ptr %ref.tmp1
  %1 = and i64 %bf.load, 8
  %bf.cast5.not = icmp eq i64 %1, 0
  %cond = select i1 %bf.cast5.not, ptr @.str.2, ptr @.str.1
  store ptr %cond, ptr %ref.tmp2, align 8
  %bf.lshr8 = lshr i64 %bf.load, 4
  %bf.clear9 = and i64 %bf.lshr8, 288230376151711743
  %cmp.not = icmp eq i64 %bf.clear9, 0
  br i1 %cmp.not, label %cond.false, label %cond.true

cond.true:                                        ; preds = %entry
  store i64 %bf.clear9, ptr %ref.tmp10, align 8
  call void @llvm.lifetime.start.p0(i64 8, ptr nonnull %ref.tmp.i)
  call void @_ZNSt7__cxx1112basic_stringIcSt11char_traitsIcESaIcEEC1Ev(ptr noundef nonnull align 8 dereferenceable(32) %ref.tmp6) #23
  store ptr %ref.tmp6, ptr %ref.tmp.i, align 8, !noalias !4
  invoke void @_ZN5folly11toAppendFitIJA4_cmPNSt7__cxx1112basic_stringIcSt11char_traitsIcESaIcEEEEEENSt9enable_ifIXsr12IsSomeStringINSt14remove_pointerI19__type_pack_elementIXmisPDpT_ELi1EEJSD_EEE4typeEEE5valueEvE4typeEDpRKSC_(ptr noundef nonnull align 1 dereferenceable(4) @.str.3, ptr noundef nonnull align 8 dereferenceable(8) %ref.tmp10, ptr noundef nonnull align 8 dereferenceable(8) %ref.tmp.i)
          to label %_ZN5folly2toINSt7__cxx1112basic_stringIcSt11char_traitsIcESaIcEEEJA4_cmEEENSt9enable_ifIXaasr12IsSomeStringIT_EE5valueoonesZT0_Li1Entsr3std7is_sameIS9_19__type_pack_elementIXmisPvDpT0_ELi1EEJvSC_EEEE5valueES9_E4typeEDpRKSB_.exit unwind label %lpad.i

common.resume:                                    ; preds = %cleanup.action19, %ehcleanup, %lpad.i
  %common.resume.op = phi { ptr, i32 } [ %2, %lpad.i ], [ %5, %ehcleanup ], [ %.pn10, %cleanup.action19 ]
  resume { ptr, i32 } %common.resume.op

lpad.i:                                           ; preds = %cond.true
  %2 = landingpad { ptr, i32 }
          cleanup
  call void @_ZNSt7__cxx1112basic_stringIcSt11char_traitsIcESaIcEED1Ev(ptr noundef nonnull align 8 dereferenceable(32) %ref.tmp6) #23
  br label %common.resume

_ZN5folly2toINSt7__cxx1112basic_stringIcSt11char_traitsIcESaIcEEEJA4_cmEEENSt9enable_ifIXaasr12IsSomeStringIT_EE5valueoonesZT0_Li1Entsr3std7is_sameIS9_19__type_pack_elementIXmisPvDpT0_ELi1EEJvSC_EEEE5valueES9_E4typeEDpRKSB_.exit: ; preds = %cond.true
  call void @llvm.lifetime.end.p0(i64 8, ptr nonnull %ref.tmp.i)
  br label %cond.end

cond.false:                                       ; preds = %entry
  call void @_ZNSaIcEC1Ev(ptr noundef nonnull align 1 dereferenceable(1) %ref.tmp15) #23
  %call.i6 = invoke noundef ptr @_ZNSt7__cxx1112basic_stringIcSt11char_traitsIcESaIcEE13_M_local_dataEv(ptr noundef nonnull align 8 dereferenceable(32) %ref.tmp6)
          to label %call.i.noexc unwind label %lpad

call.i.noexc:                                     ; preds = %cond.false
  invoke void @_ZNSt7__cxx1112basic_stringIcSt11char_traitsIcESaIcEE12_Alloc_hiderC1EPcRKS3_(ptr noundef nonnull align 8 dereferenceable(8) %ref.tmp6, ptr noundef %call.i6, ptr noundef nonnull align 1 dereferenceable(1) %ref.tmp15)
          to label %.noexc unwind label %lpad

.noexc:                                           ; preds = %call.i.noexc
  invoke void @_ZNSt7__cxx1112basic_stringIcSt11char_traitsIcESaIcEE12_M_constructIPKcEEvT_S8_St20forward_iterator_tag(ptr noundef nonnull align 8 dereferenceable(32) %ref.tmp6, ptr noundef nonnull @.str.2, ptr noundef nonnull @.str.2)
          to label %cond.end unwind label %lpad.i5

lpad.i5:                                          ; preds = %.noexc
  %3 = landingpad { ptr, i32 }
          cleanup
  call void @_ZNSaIcED2Ev(ptr noundef nonnull align 1 dereferenceable(1) %ref.tmp6) #23
  br label %cleanup.action19

cond.end:                                         ; preds = %.noexc, %_ZN5folly2toINSt7__cxx1112basic_stringIcSt11char_traitsIcESaIcEEEJA4_cmEEENSt9enable_ifIXaasr12IsSomeStringIT_EE5valueoonesZT0_Li1Entsr3std7is_sameIS9_19__type_pack_elementIXmisPvDpT0_ELi1EEJvSC_EEEE5valueES9_E4typeEDpRKSB_.exit
  invoke void @_ZN5folly2toINSt7__cxx1112basic_stringIcSt11char_traitsIcESaIcEEEJA3_chPKcS6_EEENSt9enable_ifIXaasr12IsSomeStringIT_EE5valueoonesZT0_Li1Entsr3std7is_sameISB_19__type_pack_elementIXmisPvDpT0_ELi1EEJvSE_EEEE5valueESB_E4typeEDpRKSD_(ptr sret(%"class.std::__cxx11::basic_string") align 8 %agg.result, ptr noundef nonnull align 1 dereferenceable(3) @.str, ptr noundef nonnull align 1 dereferenceable(1) %__b.__a.i, ptr noundef nonnull align 8 dereferenceable(8) %ref.tmp2, ptr noundef nonnull align 8 dereferenceable(32) %ref.tmp6)
          to label %invoke.cont17 unwind label %ehcleanup

invoke.cont17:                                    ; preds = %cond.end
  call void @_ZNSt7__cxx1112basic_stringIcSt11char_traitsIcESaIcEED1Ev(ptr noundef nonnull align 8 dereferenceable(32) %ref.tmp6) #23
  br i1 %cmp.not, label %cleanup.action, label %cleanup.done

cleanup.action:                                   ; preds = %invoke.cont17
  call void @_ZNSaIcED1Ev(ptr noundef nonnull align 1 dereferenceable(1) %ref.tmp15) #23
  br label %cleanup.done

cleanup.done:                                     ; preds = %cleanup.action, %invoke.cont17
  ret void

lpad:                                             ; preds = %call.i.noexc, %cond.false
  %4 = landingpad { ptr, i32 }
          cleanup
  br label %cleanup.action19

ehcleanup:                                        ; preds = %cond.end
  %5 = landingpad { ptr, i32 }
          cleanup
  call void @_ZNSt7__cxx1112basic_stringIcSt11char_traitsIcESaIcEED1Ev(ptr noundef nonnull align 8 dereferenceable(32) %ref.tmp6) #23
  br i1 %cmp.not, label %cleanup.action19, label %common.resume

cleanup.action19:                                 ; preds = %lpad, %lpad.i5, %ehcleanup
  %.pn10 = phi { ptr, i32 } [ %5, %ehcleanup ], [ %3, %lpad.i5 ], [ %4, %lpad ]
  call void @_ZNSaIcED1Ev(ptr noundef nonnull align 1 dereferenceable(1) %ref.tmp15) #23
  br label %common.resume
}